(dp0
S'164'
p1
S'LIBRE'
p2
sS'90'
p3
g2
sS'93'
p4
S'EC:CD:6D:7F:41:4C'
p5
sS'167'
p6
g2
sS'95'
p7
S'00:1C:C5:4E:07:00'
p8
sS'161'
p9
g2
sS'97'
p10
g2
sS'8'
p11
S'44:37:E6:E9:1B:F3'
p12
sS'163'
p13
g2
sS'120'
p14
g2
sS'121'
p15
g2
sS'122'
p16
S'00:15:70:99:15:1D'
p17
sS'123'
p18
g2
sS'124'
p19
g2
sS'125'
p20
g2
sS'126'
p21
g2
sS'127'
p22
g2
sS'128'
p23
g2
sS'129'
p24
S'00:15:5D:01:D6:02'
p25
sS'199'
p26
g2
sS'198'
p27
S'00:20:6B:93:88:87'
p28
sS'195'
p29
g2
sS'194'
p30
g2
sS'197'
p31
g2
sS'196'
p32
S'00:20:6B:8C:A6:81'
p33
sS'191'
p34
g2
sS'190'
p35
S'00:E8:4C:68:26:44'
p36
sS'193'
p37
g2
sS'192'
p38
g2
sS'3'
p39
S'50:E5:49:28:C2:75'
p40
sS'108'
p41
g2
sS'109'
p42
g2
sS'102'
p43
g2
sS'103'
p44
g2
sS'100'
p45
g2
sS'101'
p46
g2
sS'106'
p47
g2
sS'107'
p48
g2
sS'104'
p49
g2
sS'105'
p50
g2
sS'39'
p51
S'AC:22:0B:C3:CB:AA'
p52
sS'38'
p53
S'00:27:0E:21:93:57'
p54
sS'33'
p55
S'D0:67:E5:16:B7:02'
p56
sS'32'
p57
S'44:37:E6:D8:09:7B'
p58
sS'31'
p59
S'D4:3D:7E:41:41:00'
p60
sS'30'
p61
S'D4:3D:7E:15:F7:B0'
p62
sS'37'
p63
S'D4:3D:7E:38:B0:E0'
p64
sS'36'
p65
S'D4:3D:7E:41:A4:11'
p66
sS'35'
p67
S'44:37:E6:D8:35:DB'
p68
sS'34'
p69
S'00:23:68:60:7B:64'
p70
sS'252'
p71
S'EC:44:76:09:35:0E'
p72
sS'60'
p73
S'00:26:73:70:E7:90'
p74
sS'61'
p75
S'D4:3D:7E:15:F0:A0'
p76
sS'62'
p77
S'D4:3D:7E:21:50:BD'
p78
sS'63'
p79
S'C8:9C:DC:DA:7B:3F'
p80
sS'64'
p81
S'20:CF:30:E1:5A:FB'
p82
sS'65'
p83
g2
sS'66'
p84
S'00:12:C3:00:19:B4'
p85
sS'67'
p86
S'00:12:C3:00:38:9A'
p87
sS'68'
p88
S'00:20:6B:93:88:C7'
p89
sS'69'
p90
g2
sS'250'
p91
S'54:9F:35:00:9F:36'
p92
sS'251'
p93
S'AC:81:12:D8:5D:4F'
p94
sS'253'
p95
S'OFFLINE'
p96
sS'254'
p97
S'78:DA:6E:64:EC:BC'
p98
sS'6'
p99
S'8C:89:A5:D5:24:B9'
p100
sS'98'
p101
S'00:1A:8C:14:D8:0C'
p102
sS'168'
p103
g2
sS'169'
p104
g2
sS'91'
p105
g2
sS'165'
p106
g2
sS'166'
p107
g2
sS'92'
p108
S'8C:89:A5:D5:24:A4'
p109
sS'160'
p110
S'A8:20:66:0F:3F:53'
p111
sS'94'
p112
g2
sS'162'
p113
g2
sS'96'
p114
S'00:0E:6A:D2:AF:80'
p115
sS'238'
p116
S'00:0D:B4:0E:5B:56'
p117
sS'239'
p118
S'00:18:FE:87:F4:75'
p119
sS'234'
p120
S'DHCP'
p121
sS'235'
p122
g2
sS'236'
p123
g2
sS'237'
p124
S'00:50:B6:49:01:D3'
p125
sS'230'
p126
g121
sS'231'
p127
g121
sS'232'
p128
g121
sS'233'
p129
g121
sS'1'
p130
g2
sS'9'
p131
S'B4:B6:76:A5:41:6E'
p132
sS'146'
p133
S'00:25:B3:25:D2:24'
p134
sS'147'
p135
S'00:25:B3:25:D2:22'
p136
sS'144'
p137
S'00:15:5D:01:93:03'
p138
sS'145'
p139
S'00:25:B3:25:D2:26'
p140
sS'142'
p141
S'00:15:5D:01:93:04'
p142
sS'143'
p143
g2
sS'140'
p144
g2
sS'141'
p145
g2
sS'148'
p146
S'00:25:B3:25:D2:20'
p147
sS'149'
p148
S'00:1C:C0:2B:F3:9C'
p149
sS'47'
p150
S'88:DC:96:1D:34:33'
p151
sS'216'
p152
g121
sS'217'
p153
g121
sS'214'
p154
g121
sS'215'
p155
g121
sS'212'
p156
g121
sS'213'
p157
g121
sS'210'
p158
g121
sS'211'
p159
g121
sS'218'
p160
g121
sS'219'
p161
g121
sS'133'
p162
g2
sS'132'
p163
S'00:20:4A:34:24:D8'
p164
sS'131'
p165
S'00:20:4A:34:CD:E6'
p166
sS'130'
p167
g2
sS'137'
p168
g2
sS'136'
p169
g2
sS'135'
p170
g2
sS'134'
p171
g2
sS'139'
p172
g2
sS'138'
p173
g2
sS'24'
p174
S'D4:3D:7E:15:F7:EC'
p175
sS'25'
p176
S'B8:6B:23:F5:F7:13'
p177
sS'26'
p178
S'00:1C:C0:7B:8B:78'
p179
sS'27'
p180
S'D4:3D:7E:41:A4:37'
p181
sS'21'
p182
S'bc:ae:c5:91:18:fb'
p183
sS'22'
p184
S'F0:92:1C:E1:D0:84'
p185
sS'23'
p186
S'44:8A:5B:BD:0F:60'
p187
sS'28'
p188
g2
sS'29'
p189
g2
sS'4'
p190
S'1C:6F:65:F8:8A:2F'
p191
sS'118'
p192
g2
sS'59'
p193
S'D4:3D:7E:38:B0:8F'
p194
sS'58'
p195
S'00:19:D1:AB:CF:8B'
p196
sS'55'
p197
S'C8:9C:DC:DA:7B:26'
p198
sS'54'
p199
g2
sS'57'
p200
S'48:5B:39:EF:AA:DF'
p201
sS'56'
p202
S'44:8A:5B:BD:0F:3F'
p203
sS'51'
p204
S'00:01:EC:B0:D9:A5'
p205
sS'50'
p206
S'E4:11:5B:AA:80:50'
p207
sS'53'
p208
S'00:17:A4:14:95:B4'
p209
sS'52'
p210
g2
sS'115'
p211
g2
sS'114'
p212
S'AREMPLIR'
p213
sS'88'
p214
g2
sS'116'
p215
g2
sS'111'
p216
S'00:15:70:96:C6:1F'
p217
sS'110'
p218
g2
sS'113'
p219
g213
sS'112'
p220
S'00:15:70:96:C4:F7'
p221
sS'82'
p222
S'C0:C1:C0:1A:36:11'
p223
sS'83'
p224
S'00:11:22:33:44:55'
p225
sS'80'
p226
S'00:25:9C:63:E1:B4'
p227
sS'81'
p228
S'00:1B:A9:2F:58:D2'
p229
sS'119'
p230
g2
sS'87'
p231
g2
sS'84'
p232
g2
sS'85'
p233
S'00:1C:C5:51:A7:20'
p234
sS'7'
p235
S'80:C1:6E:F4:36:00'
p236
sS'247'
p237
S'04:7d:7b:0c:b3:4f'
p238
sS'245'
p239
S'00:15:5D:01:D6:03'
p240
sS'244'
p241
S'00:01:2E:4E:53:85'
p242
sS'181'
p243
g2
sS'246'
p244
g213
sS'241'
p245
g213
sS'240'
p246
S'00:24:d7:07:2C:CC'
p247
sS'243'
p248
S'00:50:B6:45:CF:FD'
p249
sS'242'
p250
g2
sS'249'
p251
S'EC:CD:6D:07:9B:A5'
p252
sS'248'
p253
S'EC:CD:6D:60:CD:D2'
p254
sS'179'
p255
g2
sS'177'
p256
S'30:85:A9:96:9C:E2'
p257
sS'176'
p258
g2
sS'175'
p259
g2
sS'174'
p260
g2
sS'173'
p261
g2
sS'172'
p262
g2
sS'171'
p263
g2
sS'170'
p264
S'00:0E:A6:4C:C9:F1'
p265
sS'182'
p266
S'00:60:B0:F3:10:9C'
p267
sS'183'
p268
g2
sS'180'
p269
g2
sS'2'
p270
S'8C:89:A5:D0:73:7C'
p271
sS'186'
p272
S'08:00:27:FE:73:3E'
p273
sS'187'
p274
S'F4:CE:46:F1:DD:A9'
p275
sS'184'
p276
S'00:1E:0B:07:DA:E0'
p277
sS'185'
p278
S'00:21:B7:5E:B0:69'
p279
sS'188'
p280
S'00:08:9B:D2:1B:19'
p281
sS'189'
p282
S'74:EA:3A:83:A7:6F'
p283
sS'229'
p284
g121
sS'228'
p285
g121
sS'227'
p286
g121
sS'226'
p287
g121
sS'225'
p288
g121
sS'224'
p289
g121
sS'223'
p290
g121
sS'222'
p291
g121
sS'221'
p292
g121
sS'220'
p293
g121
sS'11'
p294
S'20:CF:30:95:43:84'
p295
sS'10'
p296
S'8C:89:A5:38:CD:0C'
p297
sS'13'
p298
S'D4:3D:7E:21:50:6D'
p299
sS'12'
p300
S'80:E6:50:43:C1:88'
p301
sS'15'
p302
S'D4:3D:7E:15:F7:D1'
p303
sS'14'
p304
S'44:37:E6:D8:00:F1'
p305
sS'17'
p306
S'00:1C:C0:9D:80:29'
p307
sS'16'
p308
S'D0:67:E5:17:3D:2F'
p309
sS'19'
p310
S'D0:67:E5:16:BE:A7'
p311
sS'18'
p312
S'D0:67:E5:17:3D:19'
p313
sS'117'
p314
g2
sS'89'
p315
S'00:24:E8:3C:9B:53'
p316
sS'151'
p317
g2
sS'150'
p318
S'00:1C:C0:60:B9:9E'
p319
sS'153'
p320
S'00:9C:02:A3:48:0E'
p321
sS'152'
p322
S'00:16:35:C5:70:93'
p323
sS'155'
p324
g2
sS'154'
p325
S'00:1E:0B:EA:07:8E'
p326
sS'157'
p327
g2
sS'156'
p328
g2
sS'159'
p329
g2
sS'158'
p330
g2
sS'48'
p331
S'30:05:5C:49:61:15'
p332
sS'49'
p333
S'00:1B:A9:9A:43:FF'
p334
sS'46'
p335
S'00:15:70:99:12:2D'
p336
sS'86'
p337
g2
sS'44'
p338
S'D4:BE:D9:BA:27:9A'
p339
sS'45'
p340
S'BC:AE:C5:91:18:FB'
p341
sS'42'
p342
S'44:8A:5B:BD:0D:1D'
p343
sS'43'
p344
S'00:0F:FE:9F:7F:41'
p345
sS'40'
p346
S'00:30:C1:0B:45:6A'
p347
sS'41'
p348
S'D8:CB:8A:24:7B:B9'
p349
sS'5'
p350
S'9C:04:EB:0F:EB:C0'
p351
sS'201'
p352
g121
sS'200'
p353
g2
sS'203'
p354
g121
sS'202'
p355
g121
sS'205'
p356
g121
sS'204'
p357
g121
sS'207'
p358
g121
sS'206'
p359
g121
sS'209'
p360
g121
sS'208'
p361
g121
sS'77'
p362
g2
sS'76'
p363
g2
sS'75'
p364
S'00:1E:0B:08:B4:C0'
p365
sS'74'
p366
g2
sS'73'
p367
S'8C:89:A5:D0:73:78'
p368
sS'72'
p369
S'30:05:5C:51:5D:57'
p370
sS'71'
p371
g2
sS'70'
p372
S'00:11:32:0E:A7:A5'
p373
sS'79'
p374
S'00:C0:EE:95:4A:CA'
p375
sS'78'
p376
g2
s.