(dp0
S'172.16.0.249'
p1
S'80:EE:73:9D:13:45\n'
p2
sS'172.16.0.3'
p3
S'00:50:56:A4:EF:E5\n'
p4
sS'172.16.0.2'
p5
S'00:0C:29:9E:20:68\n'
p6
sS'172.16.0.1'
p7
S'00:0C:29:AB:4A:6D\n'
p8
sS'172.16.0.253'
p9
S'94:57:A5:20:26:40\n'
p10
sS'172.16.0.7'
p11
S'E4:11:5B:AA:80:52\n'
p12
sS'172.16.0.6'
p13
S'00:50:56:A4:1A:C7\n'
p14
sS'172.16.0.245'
p15
S'00:50:56:A4:32:82\n'
p16
sS'172.16.0.244'
p17
S'00:08:9B:F9:E2:F3\n'
p18
sS'172.16.0.5'
p19
S'00:50:56:A4:6B:C4\n'
p20
sS'172.16.0.4'
p21
S'00:50:56:A4:86:55\n'
p22
s.